target datalayout = "e-m:e-p270:32:32-p271:32:32-p272:64:64-i64:64-i128:128-f80:128-n8:16:32:64-S128"
target triple = "x86_64-pc-linux-gnu"

%struct.Node = type { i32 }
%struct.A_Const = type { i32, %union.ValUnion, i8, i32 }
%union.ValUnion = type { %struct.Float }
%struct.Float = type { i32, ptr }
%struct.String = type { i32, ptr }
%struct.JsonTablePathSpec = type { i32, ptr, ptr, i32, i32 }

; Function Attrs: nounwind uwtable
define dso_local ptr @makeStringConst(ptr noundef %0, i32 noundef %1) #0 {
  %3 = alloca ptr, align 8
  %4 = alloca i32, align 4
  %5 = alloca ptr, align 8
  store ptr %0, ptr %3, align 8
  store i32 %1, ptr %4, align 4
  call void @llvm.lifetime.start.p0(i64 8, ptr %5) #6
  %6 = call ptr @newNode(i64 noundef 32, i32 noundef 72)
  store ptr %6, ptr %5, align 8
  %7 = load ptr, ptr %5, align 8
  %8 = getelementptr inbounds nuw %struct.A_Const, ptr %7, i32 0, i32 1
  %9 = getelementptr inbounds nuw %struct.String, ptr %8, i32 0, i32 0
  store i32 467, ptr %9, align 8
  %10 = load ptr, ptr %3, align 8
  %11 = load ptr, ptr %5, align 8
  %12 = getelementptr inbounds nuw %struct.A_Const, ptr %11, i32 0, i32 1
  %13 = getelementptr inbounds nuw %struct.String, ptr %12, i32 0, i32 1
  store ptr %10, ptr %13, align 8
  %14 = load i32, ptr %4, align 4
  %15 = load ptr, ptr %5, align 8
  %16 = getelementptr inbounds nuw %struct.A_Const, ptr %15, i32 0, i32 3
  store i32 %14, ptr %16, align 4
  %17 = load ptr, ptr %5, align 8
  call void @llvm.lifetime.end.p0(i64 8, ptr %5) #6
  ret ptr %17
}

; Function Attrs: inlinehint nounwind uwtable
define internal ptr @newNode(i64 noundef %0, i32 noundef %1) #2 {
  %3 = alloca i64, align 8
  %4 = alloca i32, align 4
  %5 = alloca ptr, align 8
  store i64 %0, ptr %3, align 8
  store i32 %1, ptr %4, align 4
  call void @llvm.lifetime.start.p0(i64 8, ptr %5) #6
  %6 = load i64, ptr %3, align 8
  %7 = call ptr @palloc0(i64 noundef %6)
  store ptr %7, ptr %5, align 8
  %8 = load i32, ptr %4, align 4
  %9 = load ptr, ptr %5, align 8
  %10 = getelementptr inbounds nuw %struct.Node, ptr %9, i32 0, i32 0
  store i32 %8, ptr %10, align 4
  %11 = load ptr, ptr %5, align 8
  call void @llvm.lifetime.end.p0(i64 8, ptr %5) #6
  ret ptr %11
}

; Function Attrs: nounwind uwtable
define dso_local ptr @makeJsonTablePathSpec(ptr noundef %0, ptr noundef %1, i32 noundef %2, i32 noundef %3) #0 {
  %5 = alloca ptr, align 8
  %6 = alloca ptr, align 8
  %7 = alloca i32, align 4
  %8 = alloca i32, align 4
  %9 = alloca ptr, align 8
  store ptr %0, ptr %5, align 8
  store ptr %1, ptr %6, align 8
  store i32 %2, ptr %7, align 4
  store i32 %3, ptr %8, align 4
  call void @llvm.lifetime.start.p0(i64 8, ptr %9) #6
  %10 = call ptr @newNode(i64 noundef 32, i32 noundef 123)
  store ptr %10, ptr %9, align 8
  %11 = load ptr, ptr %5, align 8
  %12 = load i32, ptr %7, align 4
  %13 = call ptr @makeStringConst(ptr noundef %11, i32 noundef %12)
  %14 = load ptr, ptr %9, align 8
  %15 = getelementptr inbounds nuw %struct.JsonTablePathSpec, ptr %14, i32 0, i32 1
  store ptr %13, ptr %15, align 8
  %16 = load ptr, ptr %6, align 8
  %17 = icmp ne ptr %16, null
  br i1 %17, label %18, label %23

18:                                               ; preds = %4
  %19 = load ptr, ptr %6, align 8
  %20 = call ptr @pstrdup(ptr noundef %19)
  %21 = load ptr, ptr %9, align 8
  %22 = getelementptr inbounds nuw %struct.JsonTablePathSpec, ptr %21, i32 0, i32 2
  store ptr %20, ptr %22, align 8
  br label %23

23:                                               ; preds = %18, %4
  %24 = load i32, ptr %8, align 4
  %25 = load ptr, ptr %9, align 8
  %26 = getelementptr inbounds nuw %struct.JsonTablePathSpec, ptr %25, i32 0, i32 3
  store i32 %24, ptr %26, align 8
  %27 = load i32, ptr %7, align 4
  %28 = load ptr, ptr %9, align 8
  %29 = getelementptr inbounds nuw %struct.JsonTablePathSpec, ptr %28, i32 0, i32 4
  store i32 %27, ptr %29, align 4
  %30 = load ptr, ptr %9, align 8
  call void @llvm.lifetime.end.p0(i64 8, ptr %9) #6
  ret ptr %30
}