; Function Attrs: nounwind uwtable
define dso_local noundef ptr @makeJsonTablePathSpec(ptr noundef %0, ptr noundef %1, i32 noundef %2, i32 noundef %3) local_unnamed_addr #0 {
  %5 = tail call noundef ptr @palloc0(i64 noundef 32) #7
  store i32 123, ptr %5, align 4
  %6 = tail call noundef ptr @palloc0(i64 noundef 32) #7
  store i32 72, ptr %6, align 4
  %7 = getelementptr inbounds nuw i8, ptr %6, i64 8
  store i32 467, ptr %7, align 8
  %8 = getelementptr inbounds nuw i8, ptr %6, i64 16
  store ptr %0, ptr %8, align 8
  %9 = getelementptr inbounds nuw i8, ptr %6, i64 28
  store i32 %2, ptr %9, align 4
  %10 = getelementptr inbounds nuw i8, ptr %5, i64 8
  store ptr %6, ptr %10, align 8
  %.not = icmp eq ptr %1, null
  br i1 %.not, label %14, label %11

11:                                               ; preds = %4
  %12 = tail call ptr @pstrdup(ptr noundef nonnull %1) #7
  %13 = getelementptr inbounds nuw i8, ptr %5, i64 16
  store ptr %12, ptr %13, align 8
  br label %14

14:                                               ; preds = %11, %4
  %15 = getelementptr inbounds nuw i8, ptr %5, i64 24
  store i32 %3, ptr %15, align 8
  %16 = getelementptr inbounds nuw i8, ptr %5, i64 28
  store i32 %2, ptr %16, align 4
  ret ptr %5
}